target datalayout = "e-m:e-p270:32:32-p271:32:32-p272:64:64-i64:64-i128:128-f80:128-n8:16:32:64-S128"
target triple = "x86_64-pc-linux-gnu"

%struct.V360Context = type { ptr, i32, i32, i32, i32, i32, i32, i32, ptr, ptr, ptr, ptr, ptr, [6 x i32], [6 x i32], [6 x i32], [6 x i32], [3 x i32], i32, i32, float, float, i32, i32, float, float, float, float, float, i32, i32, i32, i32, i32, i32, i32, float, float, float, float, float, float, [2 x float], [2 x float], [2 x [4 x float]], [3 x float], i32, i32, i32, i32, [4 x i32], [4 x i32], [4 x i32], [4 x i32], [4 x i32], [4 x i32], [4 x i32], [4 x i32], [4 x i32], [4 x i32], [4 x i32], i32, i32, i32, i32, i32, i32, ptr, [4 x i32], ptr, ptr, ptr, ptr, ptr }
%struct.AVFilterContext = type { ptr, ptr, ptr, ptr, ptr, i32, ptr, ptr, i32, ptr, ptr, i32, i32, ptr, ptr, ptr, ptr, i32, ptr, i32, i32 }

; Function Attrs: nounwind uwtable
define internal i32 @prepare_eac_out(ptr noundef %0) #0 {
  %2 = alloca ptr, align 8
  %3 = alloca ptr, align 8
  store ptr %0, ptr %2, align 8, !tbaa !47
  call void @llvm.lifetime.start.p0(i64 8, ptr %3) #13
  %4 = load ptr, ptr %2, align 8, !tbaa !47
  %5 = getelementptr inbounds nuw %struct.AVFilterContext, ptr %4, i32 0, i32 9
  %6 = load ptr, ptr %5, align 8, !tbaa !49
  store ptr %6, ptr %3, align 8, !tbaa !4
  %7 = load ptr, ptr %3, align 8, !tbaa !4
  %8 = getelementptr inbounds nuw %struct.V360Context, ptr %7, i32 0, i32 14
  %9 = getelementptr inbounds [6 x i32], ptr %8, i64 0, i64 0
  store i32 1, ptr %9, align 8, !tbaa !9
  %10 = load ptr, ptr %3, align 8, !tbaa !4
  %11 = getelementptr inbounds nuw %struct.V360Context, ptr %10, i32 0, i32 14
  %12 = getelementptr inbounds [6 x i32], ptr %11, i64 0, i64 1
  store i32 4, ptr %12, align 4, !tbaa !9
  %13 = load ptr, ptr %3, align 8, !tbaa !4
  %14 = getelementptr inbounds nuw %struct.V360Context, ptr %13, i32 0, i32 14
  %15 = getelementptr inbounds [6 x i32], ptr %14, i64 0, i64 2
  store i32 0, ptr %15, align 8, !tbaa !9
  %16 = load ptr, ptr %3, align 8, !tbaa !4
  %17 = getelementptr inbounds nuw %struct.V360Context, ptr %16, i32 0, i32 14
  %18 = getelementptr inbounds [6 x i32], ptr %17, i64 0, i64 3
  store i32 3, ptr %18, align 4, !tbaa !9
  %19 = load ptr, ptr %3, align 8, !tbaa !4
  %20 = getelementptr inbounds nuw %struct.V360Context, ptr %19, i32 0, i32 14
  %21 = getelementptr inbounds [6 x i32], ptr %20, i64 0, i64 4
  store i32 5, ptr %21, align 8, !tbaa !9
  %22 = load ptr, ptr %3, align 8, !tbaa !4
  %23 = getelementptr inbounds nuw %struct.V360Context, ptr %22, i32 0, i32 14
  %24 = getelementptr inbounds [6 x i32], ptr %23, i64 0, i64 5
  store i32 2, ptr %24, align 4, !tbaa !9
  %25 = load ptr, ptr %3, align 8, !tbaa !4
  %26 = getelementptr inbounds nuw %struct.V360Context, ptr %25, i32 0, i32 16
  %27 = getelementptr inbounds [6 x i32], ptr %26, i64 0, i64 0
  store i32 0, ptr %27, align 8, !tbaa !9
  %28 = load ptr, ptr %3, align 8, !tbaa !4
  %29 = getelementptr inbounds nuw %struct.V360Context, ptr %28, i32 0, i32 16
  %30 = getelementptr inbounds [6 x i32], ptr %29, i64 0, i64 1
  store i32 0, ptr %30, align 4, !tbaa !9
  %31 = load ptr, ptr %3, align 8, !tbaa !4
  %32 = getelementptr inbounds nuw %struct.V360Context, ptr %31, i32 0, i32 16
  %33 = getelementptr inbounds [6 x i32], ptr %32, i64 0, i64 2
  store i32 0, ptr %33, align 8, !tbaa !9
  %34 = load ptr, ptr %3, align 8, !tbaa !4
  %35 = getelementptr inbounds nuw %struct.V360Context, ptr %34, i32 0, i32 16
  %36 = getelementptr inbounds [6 x i32], ptr %35, i64 0, i64 3
  store i32 3, ptr %36, align 4, !tbaa !9
  %37 = load ptr, ptr %3, align 8, !tbaa !4
  %38 = getelementptr inbounds nuw %struct.V360Context, ptr %37, i32 0, i32 16
  %39 = getelementptr inbounds [6 x i32], ptr %38, i64 0, i64 4
  store i32 1, ptr %39, align 8, !tbaa !9
  %40 = load ptr, ptr %3, align 8, !tbaa !4
  %41 = getelementptr inbounds nuw %struct.V360Context, ptr %40, i32 0, i32 16
  %42 = getelementptr inbounds [6 x i32], ptr %41, i64 0, i64 5
  store i32 3, ptr %42, align 4, !tbaa !9
  call void @llvm.lifetime.end.p0(i64 8, ptr %3) #13
  ret i32 0
}