; Function Attrs: mustprogress nofree norecurse nosync nounwind willreturn memory(write, argmem: readwrite, inaccessiblemem: none) uwtable
define internal noundef i32 @prepare_eac_out(ptr noundef readonly captures(none) %0) unnamed_addr #10 {
  %2 = getelementptr inbounds nuw i8, ptr %0, i64 72
  %3 = load ptr, ptr %2, align 8, !tbaa !39
  %4 = getelementptr inbounds nuw i8, ptr %3, i64 104
  store i32 1, ptr %4, align 8, !tbaa !90
  %5 = getelementptr inbounds nuw i8, ptr %3, i64 108
  store i32 4, ptr %5, align 4, !tbaa !90
  %6 = getelementptr inbounds nuw i8, ptr %3, i64 112
  store i32 0, ptr %6, align 8, !tbaa !90
  %7 = getelementptr inbounds nuw i8, ptr %3, i64 116
  store i32 3, ptr %7, align 4, !tbaa !90
  %8 = getelementptr inbounds nuw i8, ptr %3, i64 120
  store i32 5, ptr %8, align 8, !tbaa !90
  %9 = getelementptr inbounds nuw i8, ptr %3, i64 124
  store i32 2, ptr %9, align 4, !tbaa !90
  %10 = getelementptr inbounds nuw i8, ptr %3, i64 152
  store i32 0, ptr %10, align 8, !tbaa !90
  %11 = getelementptr inbounds nuw i8, ptr %3, i64 156
  store i32 0, ptr %11, align 4, !tbaa !90
  %12 = getelementptr inbounds nuw i8, ptr %3, i64 160
  store i32 0, ptr %12, align 8, !tbaa !90
  %13 = getelementptr inbounds nuw i8, ptr %3, i64 164
  store i32 3, ptr %13, align 4, !tbaa !90
  %14 = getelementptr inbounds nuw i8, ptr %3, i64 168
  store i32 1, ptr %14, align 8, !tbaa !90
  %15 = getelementptr inbounds nuw i8, ptr %3, i64 172
  store i32 3, ptr %15, align 4, !tbaa !90
  ret i32 0
}